; Function Attrs: mustprogress uwtable
define hidden void @_ZN3sat4drat5bdumpEjPKNS_7literalENS_6statusE(ptr nocapture noundef nonnull readonly align 8 dereferenceable(664) %this, i32 noundef %n, ptr nocapture noundef readonly %c, ptr nocapture noundef readonly %st) local_unnamed_addr #3 align 2 {
entry:
  %buffer = alloca [10000 x i8], align 16
  %0 = load i32, ptr %st, align 8
  switch i32 %0, label %return [
    i32 2, label %if.end5
    i32 3, label %if.end5.fold.split
  ]

if.end5.fold.split:                               ; preds = %entry
  br label %if.end5

if.end5:                                          ; preds = %entry, %if.end5.fold.split
  %ch.0 = phi i8 [ 97, %entry ], [ 100, %if.end5.fold.split ]
  store i8 %ch.0, ptr %buffer, align 16
  %cmp15.not = icmp eq i32 %n, 0
  br i1 %cmp15.not, label %for.end, label %for.body.lr.ph

for.body.lr.ph:                                   ; preds = %if.end5
  %m_bout = getelementptr inbounds i8, ptr %this, i64 600
  %wide.trip.count = zext i32 %n to i64
  br label %for.body

for.body:                                         ; preds = %for.body.lr.ph, %for.inc
  %indvars.iv = phi i64 [ 0, %for.body.lr.ph ], [ %indvars.iv.next, %for.inc ]
  %len.016 = phi i32 [ 1, %for.body.lr.ph ], [ %len.2, %for.inc ]
  %arrayidx7 = getelementptr inbounds %"class.sat::literal", ptr %c, i64 %indvars.iv
  %1 = load i32, ptr %arrayidx7, align 4
  br label %do.body

do.body:                                          ; preds = %do.cond, %for.body
  %len.1 = phi i32 [ %len.016, %for.body ], [ %len.2, %do.cond ]
  %v.0 = phi i32 [ %1, %for.body ], [ %shr, %do.cond ]
  %conv = trunc i32 %v.0 to i8
  %shr = lshr i32 %v.0, 7
  %tobool.not = icmp ult i32 %v.0, 128
  %conv12 = or i8 %conv, -128
  %ch.1 = select i1 %tobool.not, i8 %conv, i8 %conv12
  %inc14 = add nsw i32 %len.1, 1
  %idxprom15 = sext i32 %len.1 to i64
  %arrayidx16 = getelementptr inbounds [10000 x i8], ptr %buffer, i64 0, i64 %idxprom15
  store i8 %ch.1, ptr %arrayidx16, align 1
  %cmp18 = icmp eq i32 %inc14, 10000
  br i1 %cmp18, label %if.then19, label %do.cond

if.then19:                                        ; preds = %do.body
  %2 = load ptr, ptr %m_bout, align 8
  %call21 = call noundef nonnull align 8 dereferenceable(8) ptr @_ZNSo5writeEPKcl(ptr noundef nonnull align 8 dereferenceable(8) %2, ptr noundef nonnull %buffer, i64 noundef 10000)
  br label %do.cond

do.cond:                                          ; preds = %do.body, %if.then19
  %len.2 = phi i32 [ 0, %if.then19 ], [ %inc14, %do.body ]
  br i1 %tobool.not, label %for.inc, label %do.body, !llvm.loop !9

for.inc:                                          ; preds = %do.cond
  %indvars.iv.next = add nuw nsw i64 %indvars.iv, 1
  %exitcond.not = icmp eq i64 %indvars.iv.next, %wide.trip.count
  br i1 %exitcond.not, label %for.end, label %for.body, !llvm.loop !10

for.end:                                          ; preds = %for.inc, %if.end5
  %len.0.lcssa = phi i32 [ 1, %if.end5 ], [ %len.2, %for.inc ]
  %inc25 = add nsw i32 %len.0.lcssa, 1
  %idxprom26 = sext i32 %len.0.lcssa to i64
  %arrayidx27 = getelementptr inbounds [10000 x i8], ptr %buffer, i64 0, i64 %idxprom26
  store i8 0, ptr %arrayidx27, align 1
  %m_bout28 = getelementptr inbounds i8, ptr %this, i64 600
  %3 = load ptr, ptr %m_bout28, align 8
  %conv30 = sext i32 %inc25 to i64
  %call31 = call noundef nonnull align 8 dereferenceable(8) ptr @_ZNSo5writeEPKcl(ptr noundef nonnull align 8 dereferenceable(8) %3, ptr noundef nonnull %buffer, i64 noundef %conv30)
  br label %return

return:                                           ; preds = %entry, %for.end
  ret void
}